; Function Attrs: nounwind uwtable
define hidden void @av1_build_interintra_predictor(ptr noundef %0, ptr noundef %1, ptr noundef %2, i32 noundef %3, ptr nocapture noundef readonly %4, i32 noundef %5, i8 noundef zeroext %6) local_unnamed_addr #4 {
  %8 = alloca [16384 x i16], align 16
  %9 = alloca [16384 x i8], align 16
  %10 = getelementptr i8, ptr %1, i64 7960
  %.val = load ptr, ptr %10, align 8
  %11 = getelementptr i8, ptr %.val, i64 192
  %.val.val = load i32, ptr %11, align 8
  %12 = and i32 %.val.val, 8
  %.not = icmp eq i32 %12, 0
  %13 = ptrtoint ptr %8 to i64
  %14 = lshr exact i64 %13, 1
  %15 = inttoptr i64 %14 to ptr
  %.sink26 = select i1 %.not, ptr %9, ptr %15
  %16 = getelementptr inbounds nuw i8, ptr %1, i64 16
  %17 = sext i32 %5 to i64
  %18 = getelementptr inbounds [3 x %struct.macroblockd_plane], ptr %16, i64 0, i64 %17
  %19 = getelementptr inbounds nuw i8, ptr %18, i64 4
  %20 = load i32, ptr %19, align 4
  %21 = getelementptr inbounds nuw i8, ptr %18, i64 8
  %22 = load i32, ptr %21, align 8
  %23 = zext i8 %6 to i64
  %24 = sext i32 %20 to i64
  %25 = sext i32 %22 to i64
  %26 = getelementptr inbounds [22 x [2 x [2 x i8]]], ptr @ss_size_lookup, i64 0, i64 %23, i64 %24, i64 %25
  %27 = load i8, ptr %26, align 1
  %28 = getelementptr inbounds nuw i8, ptr %1, i64 7864
  %29 = load ptr, ptr %28, align 8
  %30 = load ptr, ptr %29, align 8
  %31 = getelementptr inbounds nuw i8, ptr %30, i64 72
  %32 = load i8, ptr %31, align 8
  %33 = zext i8 %32 to i64
  %34 = getelementptr inbounds [4 x i8], ptr @interintra_to_intra_mode, i64 0, i64 %33
  %35 = load i8, ptr %34, align 1
  %36 = getelementptr inbounds nuw i8, ptr %18, i64 168
  %37 = load i8, ptr %36, align 8
  %38 = zext i8 %37 to i32
  %39 = getelementptr inbounds nuw i8, ptr %18, i64 169
  %40 = load i8, ptr %39, align 1
  %41 = zext i8 %40 to i32
  %42 = zext i8 %27 to i64
  %43 = getelementptr inbounds [22 x i8], ptr @max_txsize_rect_lookup, i64 0, i64 %42
  %44 = load i8, ptr %43, align 1
  %45 = getelementptr inbounds [3 x ptr], ptr %4, i64 0, i64 %17
  %46 = load ptr, ptr %45, align 8
  %47 = getelementptr inbounds nuw i8, ptr %4, i64 24
  %48 = getelementptr inbounds [3 x i32], ptr %47, i64 0, i64 %17
  %49 = load i32, ptr %48, align 4
  call void @av1_predict_intra_block(ptr noundef %0, ptr noundef nonnull %1, i32 noundef %38, i32 noundef %41, i8 noundef zeroext %44, i8 noundef zeroext %35, i32 noundef 0, i32 noundef 0, i8 noundef zeroext 5, ptr noundef %46, i32 noundef %49, ptr noundef nonnull %.sink26, i32 noundef 128, i32 noundef 0, i32 noundef 0, i32 noundef %5) #18
  call void @av1_combine_interintra(ptr noundef nonnull %1, i8 noundef zeroext %6, i32 noundef %5, ptr noundef %2, i32 noundef %3, ptr noundef nonnull %.sink26, i32 noundef 128)
  ret void
}